target datalayout = "e-m:e-p270:32:32-p271:32:32-p272:64:64-i64:64-i128:128-f80:128-n8:16:32:64-S128"
target triple = "x86_64-pc-linux-gnu"

%"struct.boost::iostreams::detail::file_descriptor_impl" = type { i32, i32 }
%"class.std::ios_base::failure" = type { %"class.std::system_error" }
%"class.std::system_error" = type { %"class.std::runtime_error", %"class.std::error_code" }
%"class.std::runtime_error" = type { %"class.std::exception", %"struct.std::__cow_string" }
%"class.std::exception" = type { ptr }
%"struct.std::__cow_string" = type { %union.anon }
%union.anon = type { ptr }
%"class.std::error_code" = type { i32, ptr }
%"class.std::fpos" = type { i64, %struct.__mbstate_t }
%struct.__mbstate_t = type { i32, %union.anon.6 }
%union.anon.6 = type { i32 }
%"class.boost::iostreams::file_descriptor" = type { %"class.boost::shared_ptr" }
%"class.boost::shared_ptr" = type { ptr, %"class.boost::detail::shared_count" }
%"class.boost::detail::shared_count" = type { ptr }

@.str.5 = private unnamed_addr constant [11 x i8] c"bad offset\00", align 1
@.str.6 = private unnamed_addr constant [15 x i8] c"failed seeking\00", align 1

; Function Attrs: mustprogress nounwind uwtable
define linkonce_odr hidden void @_ZNSt10error_codeC2EiRKNSt3_V214error_categoryE(ptr noundef nonnull align 8 dereferenceable(16) %0, i32 noundef %1, ptr noundef nonnull align 8 dereferenceable(8) %2) unnamed_addr #1 comdat align 2 {
  %4 = alloca ptr, align 8
  %5 = alloca i32, align 4
  %6 = alloca ptr, align 8
  store ptr %0, ptr %4, align 8, !tbaa !3
  store i32 %1, ptr %5, align 4, !tbaa !15
  store ptr %2, ptr %6, align 8, !tbaa !3
  %7 = load ptr, ptr %4, align 8
  %8 = getelementptr inbounds nuw %"class.std::error_code", ptr %7, i32 0, i32 0
  %9 = load i32, ptr %5, align 4, !tbaa !15
  store i32 %9, ptr %8, align 8, !tbaa !57
  %10 = getelementptr inbounds nuw %"class.std::error_code", ptr %7, i32 0, i32 1
  %11 = load ptr, ptr %6, align 8, !tbaa !3
  store ptr %11, ptr %10, align 8, !tbaa !59
  ret void
}

; Function Attrs: mustprogress nounwind uwtable
define linkonce_odr hidden void @_ZNSt4fposI11__mbstate_tEC2El(ptr noundef nonnull align 8 dereferenceable(16) %0, i64 noundef %1) unnamed_addr #1 comdat align 2 {
  %3 = alloca ptr, align 8
  %4 = alloca i64, align 8
  store ptr %0, ptr %3, align 8, !tbaa !3
  store i64 %1, ptr %4, align 8, !tbaa !23
  %5 = load ptr, ptr %3, align 8
  %6 = getelementptr inbounds nuw %"class.std::fpos", ptr %5, i32 0, i32 0
  %7 = load i64, ptr %4, align 8, !tbaa !23
  store i64 %7, ptr %6, align 8, !tbaa !42
  %8 = getelementptr inbounds nuw %"class.std::fpos", ptr %5, i32 0, i32 1
  call void @llvm.memset.p0.i64(ptr align 8 %8, i8 0, i64 8, i1 false)
  ret void
}

; Function Attrs: inlinehint mustprogress nounwind uwtable
define linkonce_odr { i32, ptr } @_ZSt15make_error_codeSt7io_errc(i32 noundef %0) #4 comdat {
  %2 = alloca %"class.std::error_code", align 8
  %3 = alloca i32, align 4
  store i32 %0, ptr %3, align 4, !tbaa !20
  %4 = load i32, ptr %3, align 4, !tbaa !20
  %5 = call noundef nonnull align 8 dereferenceable(8) ptr @_ZSt17iostream_categoryv() #22
  call void @_ZNSt10error_codeC2EiRKNSt3_V214error_categoryE(ptr noundef nonnull align 8 dereferenceable(16) %2, i32 noundef %4, ptr noundef nonnull align 8 dereferenceable(8) %5) #20
  %6 = load { i32, ptr }, ptr %2, align 8
  ret { i32, ptr } %6
}

; Function Attrs: inlinehint mustprogress uwtable
define linkonce_odr hidden { i64, i64 } @_ZN5boost9iostreams18offset_to_positionEl(i64 noundef %0) #8 comdat {
  %2 = alloca %"class.std::fpos", align 8
  %3 = alloca i64, align 8
  store i64 %0, ptr %3, align 8, !tbaa !23
  %4 = load i64, ptr %3, align 8, !tbaa !23
  call void @_ZNSt4fposI11__mbstate_tEC2El(ptr noundef nonnull align 8 dereferenceable(16) %2, i64 noundef %4)
  %5 = load { i64, i64 }, ptr %2, align 8
  ret { i64, i64 } %5
}

; Function Attrs: mustprogress nounwind uwtable
define linkonce_odr hidden void @_ZNSt10error_codeC2ISt7io_errcvEET_(ptr noundef nonnull align 8 dereferenceable(16) %0, i32 noundef %1) unnamed_addr #1 comdat align 2 {
  %3 = alloca ptr, align 8
  %4 = alloca i32, align 4
  %5 = alloca %"class.std::error_code", align 8
  store ptr %0, ptr %3, align 8, !tbaa !3
  store i32 %1, ptr %4, align 4, !tbaa !20
  %6 = load ptr, ptr %3, align 8
  call void @llvm.lifetime.start.p0(i64 16, ptr %5) #20
  %7 = load i32, ptr %4, align 4, !tbaa !20
  %8 = call { i32, ptr } @_ZSt15make_error_codeSt7io_errc(i32 noundef %7) #20
  %9 = getelementptr inbounds nuw { i32, ptr }, ptr %5, i32 0, i32 0
  %10 = extractvalue { i32, ptr } %8, 0
  store i32 %10, ptr %9, align 8
  %11 = getelementptr inbounds nuw { i32, ptr }, ptr %5, i32 0, i32 1
  %12 = extractvalue { i32, ptr } %8, 1
  store ptr %12, ptr %11, align 8
  call void @llvm.memcpy.p0.p0.i64(ptr align 8 %6, ptr align 8 %5, i64 16, i1 false), !tbaa.struct !22
  call void @llvm.lifetime.end.p0(i64 16, ptr %5) #20
  ret void
}

; Function Attrs: mustprogress uwtable
define hidden { i64, i64 } @_ZN5boost9iostreams6detail20file_descriptor_impl4seekElSt12_Ios_Seekdir(ptr noundef nonnull align 4 dereferenceable(8) %0, i64 noundef %1, i32 noundef %2) #0 align 2 personality ptr @__gxx_personality_v0 {
  %4 = alloca %"class.std::fpos", align 8
  %5 = alloca ptr, align 8
  %6 = alloca i64, align 8
  %7 = alloca i32, align 4
  %8 = alloca %"class.std::ios_base::failure", align 8
  %9 = alloca %"class.std::error_code", align 8
  %10 = alloca ptr, align 8
  %11 = alloca i32, align 4
  %12 = alloca i64, align 8
  %13 = alloca %"class.std::ios_base::failure", align 8
  store ptr %0, ptr %5, align 8, !tbaa !3
  store i64 %1, ptr %6, align 8, !tbaa !23
  store i32 %2, ptr %7, align 4, !tbaa !25
  %14 = load ptr, ptr %5, align 8
  %15 = load i64, ptr %6, align 8, !tbaa !23
  %16 = icmp sgt i64 %15, 9223372036854775807
  br i1 %16, label %20, label %17

17:                                               ; preds = %3
  %18 = load i64, ptr %6, align 8, !tbaa !23
  %19 = icmp slt i64 %18, -9223372036854775808
  br i1 %19, label %20, label %26

20:                                               ; preds = %17, %3
  call void @llvm.lifetime.start.p0(i64 32, ptr %8) #20
  call void @llvm.lifetime.start.p0(i64 16, ptr %9) #20
  call void @_ZNSt10error_codeC2ISt7io_errcvEET_(ptr noundef nonnull align 8 dereferenceable(16) %9, i32 noundef 1) #20
  call void @_ZNSt8ios_base7failureB5cxx11C1EPKcRKSt10error_code(ptr noundef nonnull align 8 dereferenceable(32) %8, ptr noundef @.str.5, ptr noundef nonnull align 8 dereferenceable(16) %9)
  invoke void @_ZN5boost15throw_exceptionINSt8ios_base7failureB5cxx11EEEvRKT_(ptr noundef nonnull align 8 dereferenceable(32) %8) #21
          to label %21 unwind label %22

21:                                               ; preds = %20
  unreachable

22:                                               ; preds = %20
  %23 = landingpad { ptr, i32 }
          cleanup
  %24 = extractvalue { ptr, i32 } %23, 0
  store ptr %24, ptr %10, align 8
  %25 = extractvalue { ptr, i32 } %23, 1
  store i32 %25, ptr %11, align 4
  call void @_ZNSt8ios_base7failureB5cxx11D1Ev(ptr noundef nonnull align 8 dereferenceable(32) %8) #20
  call void @llvm.lifetime.end.p0(i64 16, ptr %9) #20
  call void @llvm.lifetime.end.p0(i64 32, ptr %8) #20
  br label %56

26:                                               ; preds = %17
  call void @llvm.lifetime.start.p0(i64 8, ptr %12) #20
  %27 = getelementptr inbounds nuw %"struct.boost::iostreams::detail::file_descriptor_impl", ptr %14, i32 0, i32 0
  %28 = load i32, ptr %27, align 4, !tbaa !7
  %29 = load i64, ptr %6, align 8, !tbaa !23
  %30 = load i32, ptr %7, align 4, !tbaa !25
  %31 = icmp eq i32 %30, 0
  br i1 %31, label %32, label %33

32:                                               ; preds = %26
  br label %37

33:                                               ; preds = %26
  %34 = load i32, ptr %7, align 4, !tbaa !25
  %35 = icmp eq i32 %34, 1
  %36 = select i1 %35, i32 1, i32 2
  br label %37

37:                                               ; preds = %33, %32
  %38 = phi i32 [ 0, %32 ], [ %36, %33 ]
  %39 = call i64 @lseek64(i32 noundef %28, i64 noundef %29, i32 noundef %38) #20
  store i64 %39, ptr %12, align 8, !tbaa !23
  %40 = load i64, ptr %12, align 8, !tbaa !23
  %41 = icmp eq i64 %40, -1
  br i1 %41, label %42, label %48

42:                                               ; preds = %37
  call void @llvm.lifetime.start.p0(i64 32, ptr %13) #20
  call void @_ZN5boost9iostreams6detail14system_failureB5cxx11EPKc(ptr dead_on_unwind writable sret(%"class.std::ios_base::failure") align 8 %13, ptr noundef @.str.6)
  invoke void @_ZN5boost15throw_exceptionINSt8ios_base7failureB5cxx11EEEvRKT_(ptr noundef nonnull align 8 dereferenceable(32) %13) #21
          to label %43 unwind label %44

43:                                               ; preds = %42
  unreachable

44:                                               ; preds = %42
  %45 = landingpad { ptr, i32 }
          cleanup
  %46 = extractvalue { ptr, i32 } %45, 0
  store ptr %46, ptr %10, align 8
  %47 = extractvalue { ptr, i32 } %45, 1
  store i32 %47, ptr %11, align 4
  call void @_ZNSt8ios_base7failureB5cxx11D1Ev(ptr noundef nonnull align 8 dereferenceable(32) %13) #20
  call void @llvm.lifetime.end.p0(i64 32, ptr %13) #20
  call void @llvm.lifetime.end.p0(i64 8, ptr %12) #20
  br label %56

48:                                               ; preds = %37
  %49 = load i64, ptr %12, align 8, !tbaa !23
  %50 = call { i64, i64 } @_ZN5boost9iostreams18offset_to_positionEl(i64 noundef %49)
  %51 = getelementptr inbounds nuw { i64, i64 }, ptr %4, i32 0, i32 0
  %52 = extractvalue { i64, i64 } %50, 0
  store i64 %52, ptr %51, align 8
  %53 = getelementptr inbounds nuw { i64, i64 }, ptr %4, i32 0, i32 1
  %54 = extractvalue { i64, i64 } %50, 1
  store i64 %54, ptr %53, align 8
  call void @llvm.lifetime.end.p0(i64 8, ptr %12) #20
  %55 = load { i64, i64 }, ptr %4, align 8
  ret { i64, i64 } %55

56:                                               ; preds = %44, %22
  %57 = load ptr, ptr %10, align 8
  %58 = load i32, ptr %11, align 4
  %59 = insertvalue { ptr, i32 } poison, ptr %57, 0
  %60 = insertvalue { ptr, i32 } %59, i32 %58, 1
  resume { ptr, i32 } %60
}

; Function Attrs: mustprogress nounwind uwtable
define linkonce_odr hidden noundef ptr @_ZNK5boost10shared_ptrINS_9iostreams6detail20file_descriptor_implEEptEv(ptr noundef nonnull align 8 dereferenceable(16) %0) #1 comdat align 2 {
  %2 = alloca ptr, align 8
  store ptr %0, ptr %2, align 8, !tbaa !3
  %3 = load ptr, ptr %2, align 8
  %4 = getelementptr inbounds nuw %"class.boost::shared_ptr", ptr %3, i32 0, i32 0
  %5 = load ptr, ptr %4, align 8, !tbaa !27
  ret ptr %5
}

; Function Attrs: mustprogress uwtable
define { i64, i64 } @_ZN5boost9iostreams15file_descriptor4seekElSt12_Ios_Seekdir(ptr noundef nonnull align 8 dereferenceable(16) %0, i64 noundef %1, i32 noundef %2) #0 align 2 {
  %4 = alloca %"class.std::fpos", align 8
  %5 = alloca ptr, align 8
  %6 = alloca i64, align 8
  %7 = alloca i32, align 4
  store ptr %0, ptr %5, align 8, !tbaa !3
  store i64 %1, ptr %6, align 8, !tbaa !23
  store i32 %2, ptr %7, align 4, !tbaa !25
  %8 = load ptr, ptr %5, align 8
  %9 = getelementptr inbounds nuw %"class.boost::iostreams::file_descriptor", ptr %8, i32 0, i32 0
  %10 = call noundef ptr @_ZNK5boost10shared_ptrINS_9iostreams6detail20file_descriptor_implEEptEv(ptr noundef nonnull align 8 dereferenceable(16) %9) #20
  %11 = load i64, ptr %6, align 8, !tbaa !23
  %12 = load i32, ptr %7, align 4, !tbaa !25
  %13 = call { i64, i64 } @_ZN5boost9iostreams6detail20file_descriptor_impl4seekElSt12_Ios_Seekdir(ptr noundef nonnull align 4 dereferenceable(8) %10, i64 noundef %11, i32 noundef %12)
  %14 = getelementptr inbounds nuw { i64, i64 }, ptr %4, i32 0, i32 0
  %15 = extractvalue { i64, i64 } %13, 0
  store i64 %15, ptr %14, align 8
  %16 = getelementptr inbounds nuw { i64, i64 }, ptr %4, i32 0, i32 1
  %17 = extractvalue { i64, i64 } %13, 1
  store i64 %17, ptr %16, align 8
  %18 = load { i64, i64 }, ptr %4, align 8
  ret { i64, i64 } %18
}