; Function Attrs: mustprogress uwtable
define { i64, i64 } @_ZN5boost9iostreams15file_descriptor4seekElSt12_Ios_Seekdir(ptr nocapture noundef nonnull readonly align 8 dereferenceable(16) %0, i64 noundef %1, i32 noundef %2) local_unnamed_addr #3 align 2 personality ptr @__gxx_personality_v0 {
  %4 = alloca %"class.std::ios_base::failure", align 8
  %5 = load ptr, ptr %0, align 8, !tbaa !19
  %6 = load i32, ptr %5, align 4, !tbaa !3
  %7 = icmp eq i32 %2, 0
  %8 = icmp eq i32 %2, 1
  %9 = select i1 %8, i32 1, i32 2
  %10 = select i1 %7, i32 0, i32 %9
  %11 = tail call i64 @lseek64(i32 noundef %6, i64 noundef %1, i32 noundef %10) #28
  %12 = icmp eq i64 %11, -1
  br i1 %12, label %13, label %_ZN5boost9iostreams6detail20file_descriptor_impl4seekElSt12_Ios_Seekdir.exit

13:                                               ; preds = %3
  call void @llvm.lifetime.start.p0(i64 32, ptr nonnull %4) #28
  call void @_ZN5boost9iostreams6detail14system_failureB5cxx11EPKc(ptr dead_on_unwind nonnull writable sret(%"class.std::ios_base::failure") align 8 %4, ptr noundef nonnull @.str.6)
  invoke void @_ZN5boost15throw_exceptionINSt8ios_base7failureB5cxx11EEEvRKT_(ptr noundef nonnull align 8 dereferenceable(32) %4) #29
          to label %14 unwind label %15

14:                                               ; preds = %13
  unreachable

15:                                               ; preds = %13
  %16 = landingpad { ptr, i32 }
          cleanup
  call void @_ZNSt8ios_base7failureB5cxx11D1Ev(ptr noundef nonnull align 8 dereferenceable(32) %4) #28
  call void @llvm.lifetime.end.p0(i64 32, ptr nonnull %4) #28
  resume { ptr, i32 } %16

_ZN5boost9iostreams6detail20file_descriptor_impl4seekElSt12_Ios_Seekdir.exit: ; preds = %3
  %.fca.0.insert.i.i = insertvalue { i64, i64 } poison, i64 %11, 0
  %.fca.1.insert.i.i = insertvalue { i64, i64 } %.fca.0.insert.i.i, i64 0, 1
  ret { i64, i64 } %.fca.1.insert.i.i
}